; Function Attrs: mustprogress nounwind uwtable
define hidden noundef i64 @_ZN14JfrThreadLocal16assign_thread_idEPK6ThreadPS_(ptr noundef %0, ptr noundef %1) local_unnamed_addr #0 align 2 {
  %3 = getelementptr inbounds i8, ptr %1, i64 184
  tail call void @_ZN6Thread11SpinAcquireEPViPKc(ptr noundef nonnull %3, ptr noundef null) #13
  %4 = getelementptr inbounds i8, ptr %1, i64 96
  %5 = load i64, ptr %4, align 8
  %6 = icmp eq i64 %5, 0
  br i1 %6, label %7, label %25

7:                                                ; preds = %2
  %8 = load ptr, ptr %0, align 8
  %9 = getelementptr inbounds i8, ptr %8, i64 56
  %10 = load ptr, ptr %9, align 8
  %11 = tail call noundef zeroext i1 %10(ptr noundef nonnull align 8 dereferenceable(888) %0) #13
  br i1 %11, label %12, label %23

12:                                               ; preds = %7
  %13 = tail call noundef ptr @_ZNK10JavaThread9threadObjEv(ptr noundef nonnull align 8 dereferenceable(1800) %0) #13
  %.not.i = icmp eq ptr %13, null
  br i1 %.not.i, label %_Z19load_java_thread_idPK6Thread.exit, label %14

14:                                               ; preds = %12
  %15 = load i32, ptr @_ZN16java_lang_Thread11_tid_offsetE, align 4
  %16 = ptrtoint ptr %13 to i64
  %17 = sext i32 %15 to i64
  %18 = add nsw i64 %17, %16
  %19 = inttoptr i64 %18 to ptr
  %20 = load i64, ptr %19, align 8
  br label %_Z19load_java_thread_idPK6Thread.exit

_Z19load_java_thread_idPK6Thread.exit:            ; preds = %12, %14
  %21 = phi i64 [ %20, %14 ], [ 0, %12 ]
  store i64 %21, ptr %4, align 8
  %22 = getelementptr inbounds i8, ptr %1, i64 88
  store volatile i64 %21, ptr %22, align 8
  br label %25

23:                                               ; preds = %7
  %24 = tail call noundef i64 @_ZN16ThreadIdentifier4nextEv() #13
  store i64 %24, ptr %4, align 8
  br label %25

25:                                               ; preds = %2, %23, %_Z19load_java_thread_idPK6Thread.exit
  %.013 = phi i64 [ %21, %_Z19load_java_thread_idPK6Thread.exit ], [ %24, %23 ], [ %5, %2 ]
  tail call void @_ZN6Thread11SpinReleaseEPVi(ptr noundef nonnull %3) #13
  ret i64 %.013
}